; Function Attrs: mustprogress nounwind uwtable
define void @_ZN9QuickOpenD2Ev(ptr noundef nonnull align 8 dereferenceable(2673) %0) unnamed_addr #2 align 2 personality ptr @__gxx_personality_v0 {
  %2 = getelementptr inbounds i8, ptr %0, i64 16
  %3 = load ptr, ptr %2, align 8
  %.not7.i = icmp eq ptr %3, null
  br i1 %.not7.i, label %_ZN9QuickOpen5CloseEv.exit, label %.lr.ph.i

.lr.ph.i:                                         ; preds = %1, %9
  %.08.i = phi ptr [ %5, %9 ], [ %3, %1 ]
  %4 = getelementptr inbounds i8, ptr %.08.i, i64 24
  %5 = load ptr, ptr %4, align 8
  %6 = load ptr, ptr %.08.i, align 8
  %7 = icmp eq ptr %6, null
  br i1 %7, label %9, label %8

8:                                                ; preds = %.lr.ph.i
  tail call void @_ZdaPv(ptr noundef nonnull %6) #16
  br label %9

9:                                                ; preds = %8, %.lr.ph.i
  tail call void @_ZdlPv(ptr noundef nonnull %.08.i) #16
  %.not.i = icmp eq ptr %5, null
  br i1 %.not.i, label %_ZN9QuickOpen5CloseEv.exit, label %.lr.ph.i, !llvm.loop !4

_ZN9QuickOpen5CloseEv.exit:                       ; preds = %9, %1
  %10 = getelementptr inbounds i8, ptr %0, i64 32
  %11 = load ptr, ptr %10, align 8
  %12 = icmp eq ptr %11, null
  br i1 %12, label %14, label %13

13:                                               ; preds = %_ZN9QuickOpen5CloseEv.exit
  tail call void @_ZdaPv(ptr noundef nonnull %11) #16
  br label %14

14:                                               ; preds = %13, %_ZN9QuickOpen5CloseEv.exit
  %15 = getelementptr inbounds i8, ptr %0, i64 2624
  %16 = load ptr, ptr %15, align 8
  %.not.i1 = icmp eq ptr %16, null
  br i1 %.not.i1, label %_ZN5ArrayIhED2Ev.exit, label %17

17:                                               ; preds = %14
  tail call void @free(ptr noundef nonnull %16) #15
  br label %_ZN5ArrayIhED2Ev.exit

_ZN5ArrayIhED2Ev.exit:                            ; preds = %14, %17
  %18 = getelementptr inbounds i8, ptr %0, i64 48
  tail call void @_ZN9CryptDataD2Ev(ptr noundef nonnull align 8 dereferenceable(2516) %18) #15
  ret void
}